target datalayout = "e-m:e-p270:32:32-p271:32:32-p272:64:64-i64:64-i128:128-f80:128-n8:16:32:64-S128"
target triple = "x86_64-pc-linux-gnu"

%struct.AVFormatContext = type { ptr, ptr, ptr, ptr, ptr, i32, i32, ptr, i32, ptr, i32, ptr, ptr, i64, i64, i64, i32, i32, i32, i64, i64, ptr, i32, i32, ptr, i32, i32, i32, i32, ptr, i64, i32, i32, %struct.AVIOInterruptCB, i32, i32, i32, i32, i64, i32, i32, i32, i32, i32, i32, i32, i32, i32, i32, i32, i32, i64, i32, i32, i32, i32, i32, ptr, ptr, ptr, ptr, i32, ptr, ptr, ptr, ptr, i32, ptr, ptr, i64, ptr, ptr, ptr, i64 }
%struct.AVIOInterruptCB = type { ptr, ptr }
%struct.AVPacket = type { ptr, i64, i64, ptr, i32, i32, i32, ptr, i32, i64, i64, ptr, ptr, %struct.AVRational }
%struct.AVRational = type { i32, i32 }
%struct.AVStream = type { ptr, i32, i32, ptr, ptr, %struct.AVRational, i64, i64, i64, i32, i32, %struct.AVRational, ptr, %struct.AVRational, %struct.AVPacket, i32, %struct.AVRational, i32 }
%struct.MXFContext = type { ptr, i64, i32, %struct.AVRational, i32, ptr, i32, i64, i8, i32, ptr, i32, i32, i64, %struct.AVTimecode, ptr, i32, i32, i32, i64, i32, [16 x i8], i32, i32, i32, %struct.AVRational, i32, i32, i32, [127 x i8], %struct.MXFStreamContext }
%struct.AVTimecode = type { i32, i32, %struct.AVRational, i32 }
%struct.MXFStreamContext = type { i64, [16 x i8], i32, ptr, ptr, i32, i32, i32, i32, i32, i32, i32, i32, i32, %struct.AVRational, i32, i32, i32, i32, i32, i32, i32, i32, i32, i32, %struct.j2k_info_t }
%struct.j2k_info_t = type { i16, i16, i32, i32, i32, i32, i32, i32, i32, i32, [12 x i8] }
%struct.AVDictionaryEntry = type { ptr, ptr }

@.str.103 = private unnamed_addr constant [9 x i8] c"timecode\00", align 1
@.str.104 = private unnamed_addr constant [97 x i8] c"Unsupported frame rate %d/%d. Set -strict option to 'unofficial' or lower in order to allow it!\0A\00", align 1
@.str.105 = private unnamed_addr constant [30 x i8] c"Unofficial frame rate %d/%d.\0A\00", align 1

; Function Attrs: alwaysinline nounwind uwtable
define internal i64 @av_inv_q(i64 %0) #8 {
  %2 = alloca %struct.AVRational, align 4
  %3 = alloca %struct.AVRational, align 4
  store i64 %0, ptr %3, align 4
  %4 = getelementptr inbounds nuw %struct.AVRational, ptr %2, i32 0, i32 0
  %5 = getelementptr inbounds nuw %struct.AVRational, ptr %3, i32 0, i32 1
  %6 = load i32, ptr %5, align 4, !tbaa !148
  store i32 %6, ptr %4, align 4, !tbaa !147
  %7 = getelementptr inbounds nuw %struct.AVRational, ptr %2, i32 0, i32 1
  %8 = getelementptr inbounds nuw %struct.AVRational, ptr %3, i32 0, i32 0
  %9 = load i32, ptr %8, align 4, !tbaa !147
  store i32 %9, ptr %7, align 4, !tbaa !148
  %10 = load i64, ptr %2, align 4
  ret i64 %10
}

; Function Attrs: nounwind uwtable
define internal i32 @mxf_init_timecode(ptr noundef %0, ptr noundef %1, i64 %2) #0 {
  %4 = alloca i32, align 4
  %5 = alloca %struct.AVRational, align 4
  %6 = alloca ptr, align 8
  %7 = alloca ptr, align 8
  %8 = alloca ptr, align 8
  %9 = alloca ptr, align 8
  %10 = alloca i32, align 4
  %11 = alloca %struct.AVRational, align 4
  %12 = alloca %struct.AVRational, align 4
  store i64 %2, ptr %5, align 4
  store ptr %0, ptr %6, align 8, !tbaa !4
  store ptr %1, ptr %7, align 8, !tbaa !38
  call void @llvm.lifetime.start.p0(i64 8, ptr %8) #13
  %13 = load ptr, ptr %6, align 8, !tbaa !4
  %14 = getelementptr inbounds nuw %struct.AVFormatContext, ptr %13, i32 0, i32 3
  %15 = load ptr, ptr %14, align 8, !tbaa !11
  store ptr %15, ptr %8, align 8, !tbaa !28
  call void @llvm.lifetime.start.p0(i64 8, ptr %9) #13
  %16 = load ptr, ptr %6, align 8, !tbaa !4
  %17 = getelementptr inbounds nuw %struct.AVFormatContext, ptr %16, i32 0, i32 29
  %18 = load ptr, ptr %17, align 8, !tbaa !88
  %19 = call ptr @av_dict_get(ptr noundef %18, ptr noundef @.str.103, ptr noundef null, i32 noundef 0)
  store ptr %19, ptr %9, align 8, !tbaa !128
  %20 = load i64, ptr %5, align 4
  %21 = call i32 @ff_mxf_get_content_package_rate(i64 %20)
  %22 = icmp ne i32 %21, 0
  br i1 %22, label %41, label %23

23:                                               ; preds = %3
  %24 = load ptr, ptr %6, align 8, !tbaa !4
  %25 = getelementptr inbounds nuw %struct.AVFormatContext, ptr %24, i32 0, i32 43
  %26 = load i32, ptr %25, align 8, !tbaa !320
  %27 = icmp sgt i32 %26, -1
  br i1 %27, label %28, label %34

28:                                               ; preds = %23
  %29 = load ptr, ptr %6, align 8, !tbaa !4
  %30 = getelementptr inbounds nuw %struct.AVRational, ptr %5, i32 0, i32 1
  %31 = load i32, ptr %30, align 4, !tbaa !148
  %32 = getelementptr inbounds nuw %struct.AVRational, ptr %5, i32 0, i32 0
  %33 = load i32, ptr %32, align 4, !tbaa !147
  call void (ptr, i32, ptr, ...) @av_log(ptr noundef %29, i32 noundef 16, ptr noundef @.str.104, i32 noundef %31, i32 noundef %33)
  store i32 -22, ptr %4, align 4
  store i32 1, ptr %10, align 4
  br label %82

34:                                               ; preds = %23
  %35 = load ptr, ptr %6, align 8, !tbaa !4
  %36 = getelementptr inbounds nuw %struct.AVRational, ptr %5, i32 0, i32 1
  %37 = load i32, ptr %36, align 4, !tbaa !148
  %38 = getelementptr inbounds nuw %struct.AVRational, ptr %5, i32 0, i32 0
  %39 = load i32, ptr %38, align 4, !tbaa !147
  call void (ptr, i32, ptr, ...) @av_log(ptr noundef %35, i32 noundef 24, ptr noundef @.str.105, i32 noundef %37, i32 noundef %39)
  br label %40

40:                                               ; preds = %34
  br label %41

41:                                               ; preds = %40, %3
  %42 = getelementptr inbounds nuw %struct.AVRational, ptr %5, i32 0, i32 1
  %43 = load i32, ptr %42, align 4, !tbaa !148
  %44 = getelementptr inbounds nuw %struct.AVRational, ptr %5, i32 0, i32 0
  %45 = load i32, ptr %44, align 4, !tbaa !147
  %46 = sdiv i32 %45, 2
  %47 = add nsw i32 %43, %46
  %48 = getelementptr inbounds nuw %struct.AVRational, ptr %5, i32 0, i32 0
  %49 = load i32, ptr %48, align 4, !tbaa !147
  %50 = sdiv i32 %47, %49
  %51 = load ptr, ptr %8, align 8, !tbaa !28
  %52 = getelementptr inbounds nuw %struct.MXFContext, ptr %51, i32 0, i32 16
  store i32 %50, ptr %52, align 8, !tbaa !271
  %53 = load ptr, ptr %9, align 8, !tbaa !128
  %54 = icmp ne ptr %53, null
  br i1 %54, label %60, label %55

55:                                               ; preds = %41
  %56 = load ptr, ptr %7, align 8, !tbaa !38
  %57 = getelementptr inbounds nuw %struct.AVStream, ptr %56, i32 0, i32 12
  %58 = load ptr, ptr %57, align 8, !tbaa !127
  %59 = call ptr @av_dict_get(ptr noundef %58, ptr noundef @.str.103, ptr noundef null, i32 noundef 0)
  store ptr %59, ptr %9, align 8, !tbaa !128
  br label %60

60:                                               ; preds = %55, %41
  %61 = load ptr, ptr %9, align 8, !tbaa !128
  %62 = icmp ne ptr %61, null
  br i1 %62, label %63, label %74

63:                                               ; preds = %60
  %64 = load ptr, ptr %8, align 8, !tbaa !28
  %65 = getelementptr inbounds nuw %struct.MXFContext, ptr %64, i32 0, i32 14
  %66 = load i64, ptr %5, align 4
  %67 = call i64 @av_inv_q(i64 %66)
  store i64 %67, ptr %11, align 4
  %68 = load ptr, ptr %9, align 8, !tbaa !128
  %69 = getelementptr inbounds nuw %struct.AVDictionaryEntry, ptr %68, i32 0, i32 1
  %70 = load ptr, ptr %69, align 8, !tbaa !130
  %71 = load ptr, ptr %6, align 8, !tbaa !4
  %72 = load i64, ptr %11, align 4
  %73 = call i32 @av_timecode_init_from_string(ptr noundef %65, i64 %72, ptr noundef %70, ptr noundef %71)
  store i32 %73, ptr %4, align 4
  store i32 1, ptr %10, align 4
  br label %82

74:                                               ; preds = %60
  %75 = load ptr, ptr %8, align 8, !tbaa !28
  %76 = getelementptr inbounds nuw %struct.MXFContext, ptr %75, i32 0, i32 14
  %77 = load i64, ptr %5, align 4
  %78 = call i64 @av_inv_q(i64 %77)
  store i64 %78, ptr %12, align 4
  %79 = load ptr, ptr %6, align 8, !tbaa !4
  %80 = load i64, ptr %12, align 4
  %81 = call i32 @av_timecode_init(ptr noundef %76, i64 %80, i32 noundef 0, i32 noundef 0, ptr noundef %79)
  store i32 %81, ptr %4, align 4
  store i32 1, ptr %10, align 4
  br label %82

82:                                               ; preds = %74, %63, %28
  call void @llvm.lifetime.end.p0(i64 8, ptr %9) #13
  call void @llvm.lifetime.end.p0(i64 8, ptr %8) #13
  %83 = load i32, ptr %4, align 4
  ret i32 %83
}