; Function Attrs: nounwind uwtable
define internal fastcc i32 @mxf_init_timecode(ptr noundef %0, ptr noundef readonly captures(none) %1, i64 %2) unnamed_addr #0 {
  %.sroa.015.0.extract.trunc = trunc i64 %2 to i32
  %.sroa.8.0.extract.shift = lshr i64 %2, 32
  %.sroa.8.0.extract.trunc = trunc nuw i64 %.sroa.8.0.extract.shift to i32
  %4 = getelementptr inbounds nuw i8, ptr %0, i64 24
  %5 = load ptr, ptr %4, align 8, !tbaa !4
  %6 = getelementptr inbounds nuw i8, ptr %0, i64 192
  %7 = load ptr, ptr %6, align 8, !tbaa !178
  %8 = tail call ptr @av_dict_get(ptr noundef %7, ptr noundef nonnull @.str.103, ptr noundef null, i32 noundef 0) #14
  %9 = tail call i32 @ff_mxf_get_content_package_rate(i64 %2) #14
  %.not = icmp eq i32 %9, 0
  br i1 %.not, label %10, label %16

10:                                               ; preds = %3
  %11 = getelementptr inbounds nuw i8, ptr %0, i64 272
  %12 = load i32, ptr %11, align 8, !tbaa !279
  %13 = icmp sgt i32 %12, -1
  br i1 %13, label %14, label %15

14:                                               ; preds = %10
  tail call void (ptr, i32, ptr, ...) @av_log(ptr noundef nonnull %0, i32 noundef 16, ptr noundef nonnull @.str.104, i32 noundef %.sroa.8.0.extract.trunc, i32 noundef %.sroa.015.0.extract.trunc) #14
  br label %32

15:                                               ; preds = %10
  tail call void (ptr, i32, ptr, ...) @av_log(ptr noundef nonnull %0, i32 noundef 24, ptr noundef nonnull @.str.105, i32 noundef %.sroa.8.0.extract.trunc, i32 noundef %.sroa.015.0.extract.trunc) #14
  br label %16

16:                                               ; preds = %15, %3
  %17 = sdiv i32 %.sroa.015.0.extract.trunc, 2
  %18 = add nsw i32 %17, %.sroa.8.0.extract.trunc
  %19 = sdiv i32 %18, %.sroa.015.0.extract.trunc
  %20 = getelementptr inbounds nuw i8, ptr %5, i64 120
  store i32 %19, ptr %20, align 8, !tbaa !258
  %.not42 = icmp eq ptr %8, null
  br i1 %.not42, label %21, label %.thread

21:                                               ; preds = %16
  %22 = getelementptr inbounds nuw i8, ptr %1, i64 80
  %23 = load ptr, ptr %22, align 8, !tbaa !203
  %24 = tail call ptr @av_dict_get(ptr noundef %23, ptr noundef nonnull @.str.103, ptr noundef null, i32 noundef 0) #14
  %.not43 = icmp eq ptr %24, null
  br i1 %.not43, label %29, label %.thread

.thread:                                          ; preds = %16, %21
  %.04047 = phi ptr [ %24, %21 ], [ %8, %16 ]
  %25 = getelementptr inbounds nuw i8, ptr %5, i64 88
  %.sroa.01.0.insert.insert.i44 = tail call i64 @llvm.fshl.i64(i64 %2, i64 %2, i64 32)
  %26 = getelementptr inbounds nuw i8, ptr %.04047, i64 8
  %27 = load ptr, ptr %26, align 8, !tbaa !204
  %28 = tail call i32 @av_timecode_init_from_string(ptr noundef nonnull %25, i64 %.sroa.01.0.insert.insert.i44, ptr noundef %27, ptr noundef nonnull %0) #14
  br label %32

29:                                               ; preds = %21
  %30 = getelementptr inbounds nuw i8, ptr %5, i64 88
  %.sroa.01.0.insert.insert.i = tail call i64 @llvm.fshl.i64(i64 %2, i64 %2, i64 32)
  %31 = tail call i32 @av_timecode_init(ptr noundef nonnull %30, i64 %.sroa.01.0.insert.insert.i, i32 noundef 0, i32 noundef 0, ptr noundef nonnull %0) #14
  br label %32

32:                                               ; preds = %29, %.thread, %14
  %.0 = phi i32 [ %28, %.thread ], [ %31, %29 ], [ -22, %14 ]
  ret i32 %.0
}